Certificate:
    Data:
        Version: 3 (0x2)
        Serial Number: 1 (0x1)
        Signature Algorithm: sha256WithRSAEncryption
        Issuer: O=Christian Hoffmeister, OU=Christian Hoffmeister Root CA, CN=Christian Hoffmeister Root CA
        Validity
            Not Before: Dec  8 13:50:08 2014 GMT
            Not After : Dec  7 13:50:08 2024 GMT
        Subject: O=Christian Hoffmeister, OU=Christian Hoffmeister Root CA, CN=Christian Hoffmeister Root CA
        Subject Public Key Info:
            Public Key Algorithm: rsaEncryption
            RSA Public Key: (4096 bit)
                Modulus (4096 bit):
                    00:bf:e4:49:70:4a:e1:ae:fa:bf:06:c8:74:ef:95:
                    c9:e2:34:10:6c:ea:43:81:52:30:62:ad:17:a1:eb:
                    fb:ca:dc:76:d5:fc:63:62:8d:96:c3:2e:34:65:f6:
                    95:8d:a7:55:68:50:7b:3e:ed:b9:cb:fc:4c:a3:2d:
                    56:03:ef:b1:a5:4a:07:78:5d:99:d3:2a:5c:27:b5:
                    d9:96:52:5f:95:3e:bd:e9:7a:20:e0:2b:8b:99:14:
                    2b:1b:c4:0f:6b:12:4a:c8:d7:7b:5f:92:43:e5:66:
                    10:92:57:58:d6:b6:28:ff:46:64:d0:b8:5f:14:6b:
                    bf:dd:35:bb:8c:75:61:23:ca:ea:24:c4:a2:27:51:
                    be:b4:f1:44:64:34:94:16:bb:95:79:8d:db:a4:d1:
                    3d:ec:14:d8:77:14:1c:c7:b6:d0:04:de:3e:86:9f:
                    30:83:62:f6:59:2d:e5:b8:b4:a8:7e:83:0e:40:20:
                    e9:ae:f9:41:83:eb:2b:6a:ca:41:d0:c4:35:c1:95:
                    38:c6:db:dd:c4:57:ef:f9:03:16:e2:ab:35:a6:2e:
                    bc:b2:a7:b9:b1:f3:7f:e6:a5:cb:f5:5b:a2:20:88:
                    85:45:23:3d:2a:8c:38:7e:cc:2f:8c:0a:f9:17:30:
                    da:46:fc:e9:95:13:b7:ff:06:a8:c4:f7:79:d3:5c:
                    10:9d:71:6f:6d:0a:84:b9:78:a6:a3:9f:f4:ef:51:
                    af:68:b1:7d:b8:0e:d2:8a:d5:ac:b0:9b:5a:0c:4d:
                    9b:ca:7d:77:8a:cc:aa:97:fd:a3:d1:eb:33:48:28:
                    72:57:d7:1a:2d:8b:a8:44:d0:27:8f:a4:ec:e1:91:
                    f4:75:08:2f:5a:29:c6:46:36:bc:52:57:35:40:6f:
                    dc:cc:c4:89:01:c5:de:10:ee:b8:63:04:06:1e:71:
                    a5:b7:f2:44:cb:56:93:18:5e:a8:5a:91:43:d3:d7:
                    94:2a:0c:42:a9:04:89:8f:71:eb:d4:3c:bc:2a:5c:
                    55:02:74:75:63:c0:f4:09:31:78:f7:fc:30:2b:24:
                    15:94:6e:ba:75:0e:cd:e3:dd:df:d9:9e:3b:1d:a5:
                    f0:69:b3:09:f8:8d:0b:58:6a:52:7c:9c:c9:92:5f:
                    3c:29:e5:c7:52:f0:e7:f7:6e:95:49:26:f4:02:51:
                    05:ba:12:ae:01:12:29:19:6f:2e:ef:42:0a:66:d5:
                    1a:73:13:76:8f:94:f6:d2:f3:69:4b:54:21:cb:cc:
                    d7:6f:50:b9:eb:8a:7d:02:47:37:42:28:c4:6d:8a:
                    d3:99:3e:9d:70:fe:34:e3:36:05:89:3d:d9:d8:d6:
                    88:dd:77:c1:d1:88:77:7f:6c:70:be:e1:90:8f:78:
                    1a:84:e3
                Exponent: 65537 (0x10001)
        X509v3 extensions:
            X509v3 Key Usage: critical
                Certificate Sign, CRL Sign
            X509v3 Basic Constraints: critical
                CA:TRUE
            X509v3 Subject Key Identifier: 
                2C:DA:0E:A7:91:1C:E3:CD:B9:8C:94:9A:26:31:F3:3A:38:BE:ED:77
            X509v3 Authority Key Identifier: 
                keyid:2C:DA:0E:A7:91:1C:E3:CD:B9:8C:94:9A:26:31:F3:3A:38:BE:ED:77

    Signature Algorithm: sha256WithRSAEncryption
        2b:ea:c4:89:d5:3d:f9:09:cf:26:cf:b7:e2:c3:45:5e:75:52:
        2b:0c:2a:7a:1d:86:d8:e9:a0:fd:f8:79:29:40:e3:b3:e8:90:
        66:0d:f4:e4:62:9e:94:33:40:f3:85:7e:ab:fc:96:26:e4:c4:
        69:ef:60:db:c4:ea:f2:a2:56:c7:50:9a:dd:27:1f:f1:b6:ae:
        a3:f4:00:c5:31:52:d4:c4:f3:3c:01:29:b9:4d:ce:8d:08:92:
        40:7e:cd:7b:43:b4:f5:45:c4:1f:e5:56:54:ec:f6:af:fb:4e:
        67:bc:15:77:df:56:41:7d:64:63:fe:9c:ac:73:3a:3e:81:29:
        d5:e7:46:49:db:ed:5b:7b:98:a8:66:da:a1:df:ab:bd:de:9c:
        0c:54:a1:2d:53:ff:3a:8c:c8:db:79:bb:24:c6:47:27:31:8c:
        9c:ea:f0:26:20:62:50:8d:c3:ff:09:ab:36:92:e8:29:52:fb:
        5c:d7:9b:90:2d:19:fe:f9:ee:3a:0a:d3:66:9b:fb:20:30:73:
        9a:7b:b6:d7:27:fc:60:d5:ff:86:0e:02:6e:28:23:1d:2e:88:
        23:2a:30:b8:57:7b:59:b1:b5:e4:91:2d:20:e6:3a:2c:b6:d6:
        f1:7a:e2:eb:19:d5:5b:fd:15:cb:cd:c5:6b:7e:1a:f9:5b:97:
        bc:cd:4a:85:91:69:70:b4:02:38:9d:cd:6a:16:c1:44:a0:b7:
        9b:a4:4d:96:cd:bf:b6:5a:14:47:7a:1d:d6:66:9c:1c:dc:18:
        5a:8a:ec:b2:99:73:7d:72:a8:11:e0:f4:98:ee:1b:5e:6f:fd:
        dc:21:7c:82:7b:c2:45:17:cf:5c:ed:f3:10:0f:09:f6:ba:36:
        01:77:6b:a2:4a:7d:52:05:bd:39:97:66:1a:0e:d0:37:5d:fa:
        a3:f7:c3:83:26:19:84:56:de:46:0c:5d:a3:5c:63:72:00:59:
        8c:47:52:8f:1d:f3:fd:3a:54:2a:73:64:e8:74:de:e5:0e:45:
        53:ed:f6:3e:50:bd:6a:75:d0:2a:ec:6d:46:26:c3:3b:2d:75:
        df:f0:32:75:27:06:9f:f1:f9:34:85:be:4b:a9:5b:da:82:3d:
        3a:1e:bf:30:f2:2b:7e:e0:2b:a6:e2:ce:fb:22:ca:93:19:28:
        32:f8:84:ba:ab:3f:3e:30:cd:9d:d8:29:5a:af:03:52:ec:c1:
        4c:52:c9:83:ad:15:e5:6f:33:a7:17:1c:c8:b3:b0:a9:7f:97:
        fb:ff:83:fe:d3:0b:84:65:90:bc:3a:72:d2:89:b1:c6:bc:06:
        e6:a1:1f:78:be:85:8b:73:d8:15:81:42:a0:1b:39:46:34:26:
        5a:6b:4b:6b:36:63:7d:e5
-----BEGIN CERTIFICATE-----
MIIFvjCCA6agAwIBAgIBATANBgkqhkiG9w0BAQsFADBwMR4wHAYDVQQKDBVDaHJp
c3RpYW4gSG9mZm1laXN0ZXIxJjAkBgNVBAsMHUNocmlzdGlhbiBIb2ZmbWVpc3Rl
ciBSb290IENBMSYwJAYDVQQDDB1DaHJpc3RpYW4gSG9mZm1laXN0ZXIgUm9vdCBD
QTAeFw0xNDEyMDgxMzUwMDhaFw0yNDEyMDcxMzUwMDhaMHAxHjAcBgNVBAoMFUNo
cmlzdGlhbiBIb2ZmbWVpc3RlcjEmMCQGA1UECwwdQ2hyaXN0aWFuIEhvZmZtZWlz
dGVyIFJvb3QgQ0ExJjAkBgNVBAMMHUNocmlzdGlhbiBIb2ZmbWVpc3RlciBSb290
IENBMIICIjANBgkqhkiG9w0BAQEFAAOCAg8AMIICCgKCAgEAv+RJcErhrvq/Bsh0
75XJ4jQQbOpDgVIwYq0Xoev7ytx21fxjYo2Wwy40ZfaVjadVaFB7Pu25y/xMoy1W
A++xpUoHeF2Z0ypcJ7XZllJflT696Xog4CuLmRQrG8QPaxJKyNd7X5JD5WYQkldY
1rYo/0Zk0LhfFGu/3TW7jHVhI8rqJMSiJ1G+tPFEZDSUFruVeY3bpNE97BTYdxQc
x7bQBN4+hp8wg2L2WS3luLSofoMOQCDprvlBg+sraspB0MQ1wZU4xtvdxFfv+QMW
4qs1pi68sqe5sfN/5qXL9VuiIIiFRSM9Kow4fswvjAr5FzDaRvzplRO3/waoxPd5
01wQnXFvbQqEuXimo5/071GvaLF9uA7SitWssJtaDE2byn13isyql/2j0eszSChy
V9caLYuoRNAnj6Ts4ZH0dQgvWinGRja8Ulc1QG/czMSJAcXeEO64YwQGHnGlt/JE
y1aTGF6oWpFD09eUKgxCqQSJj3Hr1Dy8KlxVAnR1Y8D0CTF49/wwKyQVlG66dQ7N
493f2Z47HaXwabMJ+I0LWGpSfJzJkl88KeXHUvDn926VSSb0AlEFuhKuARIpGW8u
70IKZtUacxN2j5T20vNpS1Qhy8zXb1C564p9Akc3QijEbYrTmT6dcP404zYFiT3Z
2NaI3XfB0Yh3f2xwvuGQj3gahOMCAwEAAaNjMGEwDgYDVR0PAQH/BAQDAgEGMA8G
A1UdEwEB/wQFMAMBAf8wHQYDVR0OBBYEFCzaDqeRHOPNuYyUmiYx8zo4vu13MB8G
A1UdIwQYMBaAFCzaDqeRHOPNuYyUmiYx8zo4vu13MA0GCSqGSIb3DQEBCwUAA4IC
AQAr6sSJ1T35Cc8mz7fiw0VedVIrDCp6HYbY6aD9+HkpQOOz6JBmDfTkYp6UM0Dz
hX6r/JYm5MRp72DbxOryolbHUJrdJx/xtq6j9ADFMVLUxPM8ASm5Tc6NCJJAfs17
Q7T1RcQf5VZU7Pav+05nvBV331ZBfWRj/pysczo+gSnV50ZJ2+1be5ioZtqh36u9
3pwMVKEtU/86jMjbebskxkcnMYyc6vAmIGJQjcP/Cas2kugpUvtc15uQLRn++e46
CtNmm/sgMHOae7bXJ/xg1f+GDgJuKCMdLogjKjC4V3tZsbXkkS0g5josttbxeuLr
GdVb/RXLzcVrfhr5W5e8zUqFkWlwtAI4nc1qFsFEoLebpE2Wzb+2WhRHeh3WZpwc
3BhaiuyymXN9cqgR4PSY7hteb/3cIXyCe8JFF89c7fMQDwn2ujYBd2uiSn1SBb05
l2YaDtA3Xfqj98ODJhmEVt5GDF2jXGNyAFmMR1KPHfP9OlQqc2TodN7lDkVT7fY+
UL1qddAq7G1GJsM7LXXf8DJ1Jwaf8fk0hb5LqVvagj06Hr8w8it+4Cum4s77IsqT
GSgy+IS6qz8+MM2d2ClarwNS7MFMUsmDrRXlbzOnFxzIs7Cpf5f7/4P+0wuEZZC8
OnLSibHGvAbmoR94voWLc9gVgUKgGzlGNCZaa0trNmN95Q==
-----END CERTIFICATE-----
